; Function Attrs: mustprogress nounwind uwtable
define internal fastcc void @_ZNSt16allocator_traitsISaIN5Yosys7hashlib4dictIPNS0_5RTLIL4CellEN12_GLOBAL__N_111SimInstance10ff_state_tENS1_8hash_opsIS5_EEE7entry_tEEE7destroyISC_EEvRSD_PT_(ptr noundef %0) unnamed_addr #3 align 2 personality ptr @__gxx_personality_v0 {
  %2 = getelementptr inbounds i8, ptr %0, i64 80
  tail call void @_ZN5Yosys6FfDataD2Ev(ptr noundef nonnull align 8 dereferenceable(856) %2) #31
  %3 = getelementptr inbounds i8, ptr %0, i64 48
  %4 = load ptr, ptr %3, align 8
  %.not.i.i.i.i.i.i.i.i = icmp eq ptr %4, null
  br i1 %.not.i.i.i.i.i.i.i.i, label %_ZN5Yosys5RTLIL5ConstD2Ev.exit.i.i.i.i, label %5

5:                                                ; preds = %1
  tail call void @_ZdlPv(ptr noundef nonnull %4) #32
  br label %_ZN5Yosys5RTLIL5ConstD2Ev.exit.i.i.i.i

_ZN5Yosys5RTLIL5ConstD2Ev.exit.i.i.i.i:           ; preds = %5, %1
  %6 = getelementptr inbounds i8, ptr %0, i64 16
  %7 = load ptr, ptr %6, align 8
  %.not.i.i.i.i1.i.i.i.i = icmp eq ptr %7, null
  br i1 %.not.i.i.i.i1.i.i.i.i, label %_ZNSt15__new_allocatorIN5Yosys7hashlib4dictIPNS0_5RTLIL4CellEN12_GLOBAL__N_111SimInstance10ff_state_tENS1_8hash_opsIS5_EEE7entry_tEE7destroyISC_EEvPT_.exit, label %8

8:                                                ; preds = %_ZN5Yosys5RTLIL5ConstD2Ev.exit.i.i.i.i
  tail call void @_ZdlPv(ptr noundef nonnull %7) #32
  br label %_ZNSt15__new_allocatorIN5Yosys7hashlib4dictIPNS0_5RTLIL4CellEN12_GLOBAL__N_111SimInstance10ff_state_tENS1_8hash_opsIS5_EEE7entry_tEE7destroyISC_EEvPT_.exit

_ZNSt15__new_allocatorIN5Yosys7hashlib4dictIPNS0_5RTLIL4CellEN12_GLOBAL__N_111SimInstance10ff_state_tENS1_8hash_opsIS5_EEE7entry_tEE7destroyISC_EEvPT_.exit: ; preds = %_ZN5Yosys5RTLIL5ConstD2Ev.exit.i.i.i.i, %8
  ret void
}